; Function Attrs: nounwind uwtable
define ptr @l_Lean_Compiler_LCNF_normFunDecl___rarg___lambda__1(i8 noundef zeroext %0, ptr noundef %1, ptr noundef %2, ptr noundef %3) local_unnamed_addr #2 {
  tail call void @lean_inc_heartbeat() #6
  %5 = tail call noalias ptr @mi_malloc_small(i64 noundef 48) #6
  %6 = icmp eq ptr %5, null
  br i1 %6, label %7, label %lean_alloc_closure.exit

7:                                                ; preds = %4
  tail call void @lean_internal_panic_out_of_memory() #7
  unreachable

lean_alloc_closure.exit:                          ; preds = %4
  %8 = zext i8 %0 to i64
  %9 = shl nuw nsw i64 %8, 1
  %10 = or disjoint i64 %9, 1
  %11 = inttoptr i64 %10 to ptr
  %12 = getelementptr inbounds nuw i8, ptr %5, i64 4
  store i32 1, ptr %5, align 4, !tbaa !8
  store i32 -184549328, ptr %12, align 4
  %13 = getelementptr inbounds nuw i8, ptr %5, i64 8
  store ptr @l_Lean_Compiler_LCNF_normFunDeclImp___boxed, ptr %13, align 8, !tbaa !4
  %14 = getelementptr inbounds nuw i8, ptr %5, i64 16
  store i16 8, ptr %14, align 8, !tbaa !12
  %15 = getelementptr inbounds nuw i8, ptr %5, i64 18
  store i16 3, ptr %15, align 2, !tbaa !12
  %16 = getelementptr inbounds nuw i8, ptr %5, i64 24
  store ptr %11, ptr %16, align 8, !tbaa !4
  %17 = getelementptr inbounds nuw i8, ptr %5, i64 32
  store ptr %1, ptr %17, align 8, !tbaa !4
  %18 = getelementptr inbounds nuw i8, ptr %5, i64 40
  store ptr %3, ptr %18, align 8, !tbaa !4
  %19 = tail call ptr @lean_apply_2(ptr noundef %2, ptr noundef nonnull inttoptr (i64 1 to ptr), ptr noundef nonnull %5) #6
  ret ptr %19
}